; Function Attrs: mustprogress uwtable
define dso_local noundef i64 @_ZNK11conformance18JspbEncodingConfig12ByteSizeLongEv(ptr noundef nonnull align 8 dereferenceable(24) %this) unnamed_addr #3 align 2 personality ptr @__gxx_personality_v0 {
entry:
  %use_jspb_array_any_format_.i.i = getelementptr inbounds i8, ptr %this, i64 16
  %0 = load i8, ptr %use_jspb_array_any_format_.i.i, align 8
  %1 = shl i8 %0, 1
  %2 = and i8 %1, 2
  %spec.select = zext nneg i8 %2 to i64
  %_internal_metadata_ = getelementptr inbounds i8, ptr %this, i64 8
  %3 = load ptr, ptr %_internal_metadata_, align 8
  %4 = ptrtoint ptr %3 to i64
  %conv.i4 = and i64 %4, 1
  %cmp.i.not = icmp eq i64 %conv.i4, 0
  br i1 %cmp.i.not, label %if.end7, label %if.then4

if.then4:                                         ; preds = %entry
  %_cached_size_ = getelementptr inbounds i8, ptr %this, i64 20
  %call6 = tail call noundef i64 @_ZN6google8protobuf8internal24ComputeUnknownFieldsSizeERKNS1_16InternalMetadataEmPNS1_10CachedSizeE(ptr noundef nonnull align 8 dereferenceable(8) %_internal_metadata_, i64 noundef %spec.select, ptr noundef nonnull %_cached_size_)
  br label %return

if.end7:                                          ; preds = %entry
  %conv.i = zext nneg i8 %2 to i32
  %_cached_size_.i = getelementptr inbounds i8, ptr %this, i64 20
  store atomic i32 %conv.i, ptr %_cached_size_.i monotonic, align 4
  br label %return

return:                                           ; preds = %if.end7, %if.then4
  %retval.0 = phi i64 [ %call6, %if.then4 ], [ %spec.select, %if.end7 ]
  ret i64 %retval.0
}